target datalayout = "e-m:e-p270:32:32-p271:32:32-p272:64:64-i64:64-i128:128-f80:128-n8:16:32:64-S128"
target triple = "x86_64-pc-linux-gnu"

%"class.cv::detail::tracking::ClfOnlineStump" = type { float, float, float, float, float, i32, float, float, float, float, float, i8, i32 }
%"class.cv::Mat" = type { i32, i32, i32, i32, ptr, ptr, ptr, ptr, ptr, ptr, %"struct.cv::MatSize", %"struct.cv::MatStep" }
%"struct.cv::MatSize" = type { ptr }
%"struct.cv::MatStep" = type { ptr, [2 x i64] }

; Function Attrs: inlinehint mustprogress nounwind uwtable
define linkonce_odr hidden noundef nonnull align 4 dereferenceable(4) ptr @_ZNK2cv3Mat2atIfEERKT_ii(ptr noundef nonnull align 8 dereferenceable(96) %0, i32 noundef %1, i32 noundef %2) #8 comdat align 2 {
  %4 = alloca ptr, align 8
  %5 = alloca i32, align 4
  %6 = alloca i32, align 4
  store ptr %0, ptr %4, align 8, !tbaa !53
  store i32 %1, ptr %5, align 4, !tbaa !31
  store i32 %2, ptr %6, align 4, !tbaa !31
  %7 = load ptr, ptr %4, align 8
  %8 = getelementptr inbounds nuw %"class.cv::Mat", ptr %7, i32 0, i32 4
  %9 = load ptr, ptr %8, align 8, !tbaa !142
  %10 = getelementptr inbounds nuw %"class.cv::Mat", ptr %7, i32 0, i32 11
  %11 = getelementptr inbounds nuw %"struct.cv::MatStep", ptr %10, i32 0, i32 0
  %12 = load ptr, ptr %11, align 8, !tbaa !143
  %13 = getelementptr inbounds i64, ptr %12, i64 0
  %14 = load i64, ptr %13, align 8, !tbaa !41
  %15 = load i32, ptr %5, align 4, !tbaa !31
  %16 = sext i32 %15 to i64
  %17 = mul i64 %14, %16
  %18 = getelementptr inbounds nuw i8, ptr %9, i64 %17
  %19 = load i32, ptr %6, align 4, !tbaa !31
  %20 = sext i32 %19 to i64
  %21 = getelementptr inbounds float, ptr %18, i64 %20
  ret ptr %21
}

; Function Attrs: mustprogress uwtable
define hidden noundef float @_ZN2cv6detail8tracking14ClfOnlineStump9classifyFERKNS_3MatEi(ptr noundef nonnull align 4 dereferenceable(52) %0, ptr noundef nonnull align 8 dereferenceable(96) %1, i32 noundef %2) #1 align 2 {
  %4 = alloca ptr, align 8
  %5 = alloca ptr, align 8
  %6 = alloca i32, align 4
  %7 = alloca float, align 4
  %8 = alloca double, align 8
  %9 = alloca double, align 8
  store ptr %0, ptr %4, align 8, !tbaa !43
  store ptr %1, ptr %5, align 8, !tbaa !53
  store i32 %2, ptr %6, align 4, !tbaa !31
  %10 = load ptr, ptr %4, align 8
  call void @llvm.lifetime.start.p0(i64 4, ptr %7) #7
  %11 = load ptr, ptr %5, align 8, !tbaa !53
  %12 = load i32, ptr %6, align 4, !tbaa !31
  %13 = getelementptr inbounds nuw %"class.cv::detail::tracking::ClfOnlineStump", ptr %10, i32 0, i32 12
  %14 = load i32, ptr %13, align 4, !tbaa !89
  %15 = call noundef nonnull align 4 dereferenceable(4) ptr @_ZNK2cv3Mat2atIfEERKT_ii(ptr noundef nonnull align 8 dereferenceable(96) %11, i32 noundef %12, i32 noundef %14)
  %16 = load float, ptr %15, align 4, !tbaa !32
  store float %16, ptr %7, align 4, !tbaa !32
  call void @llvm.lifetime.start.p0(i64 8, ptr %8) #7
  %17 = load float, ptr %7, align 4, !tbaa !32
  %18 = getelementptr inbounds nuw %"class.cv::detail::tracking::ClfOnlineStump", ptr %10, i32 0, i32 0
  %19 = load float, ptr %18, align 4, !tbaa !97
  %20 = fsub float %17, %19
  %21 = load float, ptr %7, align 4, !tbaa !32
  %22 = getelementptr inbounds nuw %"class.cv::detail::tracking::ClfOnlineStump", ptr %10, i32 0, i32 0
  %23 = load float, ptr %22, align 4, !tbaa !97
  %24 = fsub float %21, %23
  %25 = fmul float %20, %24
  %26 = getelementptr inbounds nuw %"class.cv::detail::tracking::ClfOnlineStump", ptr %10, i32 0, i32 9
  %27 = load float, ptr %26, align 4, !tbaa !104
  %28 = getelementptr inbounds nuw %"class.cv::detail::tracking::ClfOnlineStump", ptr %10, i32 0, i32 7
  %29 = load float, ptr %28, align 4, !tbaa !101
  %30 = call float @llvm.fmuladd.f32(float %25, float %27, float %29)
  %31 = fpext float %30 to double
  store double %31, ptr %8, align 8, !tbaa !90
  call void @llvm.lifetime.start.p0(i64 8, ptr %9) #7
  %32 = load float, ptr %7, align 4, !tbaa !32
  %33 = getelementptr inbounds nuw %"class.cv::detail::tracking::ClfOnlineStump", ptr %10, i32 0, i32 1
  %34 = load float, ptr %33, align 4, !tbaa !95
  %35 = fsub float %32, %34
  %36 = load float, ptr %7, align 4, !tbaa !32
  %37 = getelementptr inbounds nuw %"class.cv::detail::tracking::ClfOnlineStump", ptr %10, i32 0, i32 1
  %38 = load float, ptr %37, align 4, !tbaa !95
  %39 = fsub float %36, %38
  %40 = fmul float %35, %39
  %41 = getelementptr inbounds nuw %"class.cv::detail::tracking::ClfOnlineStump", ptr %10, i32 0, i32 8
  %42 = load float, ptr %41, align 4, !tbaa !103
  %43 = getelementptr inbounds nuw %"class.cv::detail::tracking::ClfOnlineStump", ptr %10, i32 0, i32 6
  %44 = load float, ptr %43, align 4, !tbaa !102
  %45 = call float @llvm.fmuladd.f32(float %40, float %42, float %44)
  %46 = fpext float %45 to double
  store double %46, ptr %9, align 8, !tbaa !90
  %47 = load double, ptr %9, align 8, !tbaa !90
  %48 = load double, ptr %8, align 8, !tbaa !90
  %49 = fsub double %47, %48
  %50 = fptrunc double %49 to float
  call void @llvm.lifetime.end.p0(i64 8, ptr %9) #7
  call void @llvm.lifetime.end.p0(i64 8, ptr %8) #7
  call void @llvm.lifetime.end.p0(i64 4, ptr %7) #7
  ret float %50
}