; Function Attrs: mustprogress nofree norecurse nosync nounwind willreturn memory(read, inaccessiblemem: none) uwtable
define hidden noundef float @_ZN2cv6detail8tracking14ClfOnlineStump9classifyFERKNS_3MatEi(ptr noundef nonnull readonly align 4 captures(none) dereferenceable(52) %0, ptr noundef nonnull readonly align 8 captures(none) dereferenceable(96) %1, i32 noundef %2) local_unnamed_addr #13 align 2 {
  %4 = getelementptr inbounds nuw i8, ptr %0, i64 48
  %5 = load i32, ptr %4, align 4, !tbaa !38
  %6 = getelementptr inbounds nuw i8, ptr %1, i64 16
  %7 = load ptr, ptr %6, align 8, !tbaa !66
  %8 = getelementptr inbounds nuw i8, ptr %1, i64 72
  %9 = load ptr, ptr %8, align 8, !tbaa !67
  %10 = load i64, ptr %9, align 8, !tbaa !68
  %11 = sext i32 %2 to i64
  %12 = mul i64 %10, %11
  %13 = getelementptr inbounds nuw i8, ptr %7, i64 %12
  %14 = sext i32 %5 to i64
  %15 = getelementptr inbounds float, ptr %13, i64 %14
  %16 = load float, ptr %15, align 4, !tbaa !27
  %17 = load float, ptr %0, align 4, !tbaa !41
  %18 = fsub float %16, %17
  %19 = fmul float %18, %18
  %20 = getelementptr inbounds nuw i8, ptr %0, i64 36
  %21 = load float, ptr %20, align 4, !tbaa !70
  %22 = getelementptr inbounds nuw i8, ptr %0, i64 28
  %23 = load float, ptr %22, align 4, !tbaa !71
  %24 = tail call float @llvm.fmuladd.f32(float %19, float %21, float %23)
  %25 = getelementptr inbounds nuw i8, ptr %0, i64 4
  %26 = load float, ptr %25, align 4, !tbaa !42
  %27 = fsub float %16, %26
  %28 = fmul float %27, %27
  %29 = getelementptr inbounds nuw i8, ptr %0, i64 32
  %30 = load float, ptr %29, align 4, !tbaa !72
  %31 = getelementptr inbounds nuw i8, ptr %0, i64 24
  %32 = load float, ptr %31, align 4, !tbaa !73
  %33 = tail call float @llvm.fmuladd.f32(float %28, float %30, float %32)
  %34 = fsub float %33, %24
  ret float %34
}